target datalayout = "e-m:e-p270:32:32-p271:32:32-p272:64:64-i64:64-i128:128-f80:128-n8:16:32:64-S128"
target triple = "x86_64-pc-linux-gnu"

%struct.ChunkInfo = type { i32, i32, i32 }
%struct.WebPChunk = type { i32, i32, %struct.WebPData, ptr }
%struct.WebPData = type { ptr, i64 }
%struct.WebPMuxImage = type { ptr, ptr, ptr, ptr, i32, i32, i32, i32, ptr }

; Function Attrs: nounwind uwtable
define hidden i32 @ChunkGetIdFromTag(i32 noundef %0) #0 {
  %2 = alloca i32, align 4
  %3 = alloca i32, align 4
  %4 = alloca i32, align 4
  %5 = alloca i32, align 4
  store i32 %0, ptr %3, align 4, !tbaa !19
  call void @llvm.lifetime.start.p0(i64 4, ptr %4) #6
  store i32 0, ptr %4, align 4, !tbaa !19
  br label %6

6:                                                ; preds = %28, %1
  %7 = load i32, ptr %4, align 4, !tbaa !19
  %8 = sext i32 %7 to i64
  %9 = getelementptr inbounds [11 x %struct.ChunkInfo], ptr @kChunks, i64 0, i64 %8
  %10 = getelementptr inbounds nuw %struct.ChunkInfo, ptr %9, i32 0, i32 0
  %11 = load i32, ptr %10, align 4, !tbaa !20
  %12 = icmp ne i32 %11, 0
  br i1 %12, label %13, label %31

13:                                               ; preds = %6
  %14 = load i32, ptr %3, align 4, !tbaa !19
  %15 = load i32, ptr %4, align 4, !tbaa !19
  %16 = sext i32 %15 to i64
  %17 = getelementptr inbounds [11 x %struct.ChunkInfo], ptr @kChunks, i64 0, i64 %16
  %18 = getelementptr inbounds nuw %struct.ChunkInfo, ptr %17, i32 0, i32 0
  %19 = load i32, ptr %18, align 4, !tbaa !20
  %20 = icmp eq i32 %14, %19
  br i1 %20, label %21, label %27

21:                                               ; preds = %13
  %22 = load i32, ptr %4, align 4, !tbaa !19
  %23 = sext i32 %22 to i64
  %24 = getelementptr inbounds [11 x %struct.ChunkInfo], ptr @kChunks, i64 0, i64 %23
  %25 = getelementptr inbounds nuw %struct.ChunkInfo, ptr %24, i32 0, i32 1
  %26 = load i32, ptr %25, align 4, !tbaa !24
  store i32 %26, ptr %2, align 4
  store i32 1, ptr %5, align 4
  br label %32

27:                                               ; preds = %13
  br label %28

28:                                               ; preds = %27
  %29 = load i32, ptr %4, align 4, !tbaa !19
  %30 = add nsw i32 %29, 1
  store i32 %30, ptr %4, align 4, !tbaa !19
  br label %6, !llvm.loop !25

31:                                               ; preds = %6
  store i32 9, ptr %2, align 4
  store i32 1, ptr %5, align 4
  br label %32

32:                                               ; preds = %31, %21
  call void @llvm.lifetime.end.p0(i64 4, ptr %4) #6
  %33 = load i32, ptr %2, align 4
  ret i32 %33
}

; Function Attrs: nounwind uwtable
define internal ptr @GetChunkListFromId(ptr noundef %0, i32 noundef %1) #0 {
  %3 = alloca ptr, align 8
  %4 = alloca ptr, align 8
  %5 = alloca i32, align 4
  store ptr %0, ptr %4, align 8, !tbaa !44
  store i32 %1, ptr %5, align 4, !tbaa !19
  %6 = load i32, ptr %5, align 4, !tbaa !19
  switch i32 %6, label %16 [
    i32 3, label %7
    i32 5, label %10
    i32 6, label %13
  ]

7:                                                ; preds = %2
  %8 = load ptr, ptr %4, align 8, !tbaa !44
  %9 = getelementptr inbounds nuw %struct.WebPMuxImage, ptr %8, i32 0, i32 0
  store ptr %9, ptr %3, align 8
  br label %17

10:                                               ; preds = %2
  %11 = load ptr, ptr %4, align 8, !tbaa !44
  %12 = getelementptr inbounds nuw %struct.WebPMuxImage, ptr %11, i32 0, i32 1
  store ptr %12, ptr %3, align 8
  br label %17

13:                                               ; preds = %2
  %14 = load ptr, ptr %4, align 8, !tbaa !44
  %15 = getelementptr inbounds nuw %struct.WebPMuxImage, ptr %14, i32 0, i32 2
  store ptr %15, ptr %3, align 8
  br label %17

16:                                               ; preds = %2
  store ptr null, ptr %3, align 8
  br label %17

17:                                               ; preds = %16, %13, %10, %7
  %18 = load ptr, ptr %3, align 8
  ret ptr %18
}

; Function Attrs: nounwind uwtable
define hidden i32 @MuxImageCount(ptr noundef %0, i32 noundef %1) #0 {
  %3 = alloca ptr, align 8
  %4 = alloca i32, align 4
  %5 = alloca i32, align 4
  %6 = alloca ptr, align 8
  %7 = alloca ptr, align 8
  %8 = alloca i32, align 4
  store ptr %0, ptr %3, align 8, !tbaa !44
  store i32 %1, ptr %4, align 4, !tbaa !19
  call void @llvm.lifetime.start.p0(i64 4, ptr %5) #6
  store i32 0, ptr %5, align 4, !tbaa !19
  call void @llvm.lifetime.start.p0(i64 8, ptr %6) #6
  %9 = load ptr, ptr %3, align 8, !tbaa !44
  store ptr %9, ptr %6, align 8, !tbaa !44
  br label %10

10:                                               ; preds = %40, %2
  %11 = load ptr, ptr %6, align 8, !tbaa !44
  %12 = icmp ne ptr %11, null
  br i1 %12, label %13, label %44

13:                                               ; preds = %10
  %14 = load i32, ptr %4, align 4, !tbaa !19
  %15 = icmp eq i32 %14, 10
  br i1 %15, label %16, label %19

16:                                               ; preds = %13
  %17 = load i32, ptr %5, align 4, !tbaa !19
  %18 = add nsw i32 %17, 1
  store i32 %18, ptr %5, align 4, !tbaa !19
  br label %39

19:                                               ; preds = %13
  call void @llvm.lifetime.start.p0(i64 8, ptr %7) #6
  %20 = load ptr, ptr %6, align 8, !tbaa !44
  %21 = load i32, ptr %4, align 4, !tbaa !19
  %22 = call ptr @GetChunkListFromId(ptr noundef %20, i32 noundef %21)
  %23 = load ptr, ptr %22, align 8, !tbaa !3
  store ptr %23, ptr %7, align 8, !tbaa !3
  %24 = load ptr, ptr %7, align 8, !tbaa !3
  %25 = icmp ne ptr %24, null
  br i1 %25, label %26, label %38

26:                                               ; preds = %19
  call void @llvm.lifetime.start.p0(i64 4, ptr %8) #6
  %27 = load ptr, ptr %7, align 8, !tbaa !3
  %28 = getelementptr inbounds nuw %struct.WebPChunk, ptr %27, i32 0, i32 0
  %29 = load i32, ptr %28, align 8, !tbaa !8
  %30 = call i32 @ChunkGetIdFromTag(i32 noundef %29)
  store i32 %30, ptr %8, align 4, !tbaa !19
  %31 = load i32, ptr %8, align 4, !tbaa !19
  %32 = load i32, ptr %4, align 4, !tbaa !19
  %33 = icmp eq i32 %31, %32
  br i1 %33, label %34, label %37

34:                                               ; preds = %26
  %35 = load i32, ptr %5, align 4, !tbaa !19
  %36 = add nsw i32 %35, 1
  store i32 %36, ptr %5, align 4, !tbaa !19
  br label %37

37:                                               ; preds = %34, %26
  call void @llvm.lifetime.end.p0(i64 4, ptr %8) #6
  br label %38

38:                                               ; preds = %37, %19
  call void @llvm.lifetime.end.p0(i64 8, ptr %7) #6
  br label %39

39:                                               ; preds = %38, %16
  br label %40

40:                                               ; preds = %39
  %41 = load ptr, ptr %6, align 8, !tbaa !44
  %42 = getelementptr inbounds nuw %struct.WebPMuxImage, ptr %41, i32 0, i32 8
  %43 = load ptr, ptr %42, align 8, !tbaa !46
  store ptr %43, ptr %6, align 8, !tbaa !44
  br label %10, !llvm.loop !48

44:                                               ; preds = %10
  %45 = load i32, ptr %5, align 4, !tbaa !19
  call void @llvm.lifetime.end.p0(i64 8, ptr %6) #6
  call void @llvm.lifetime.end.p0(i64 4, ptr %5) #6
  ret i32 %45
}

; Function Attrs: nounwind uwtable
define hidden ptr @MuxImageDelete(ptr noundef %0) #0 {
  %2 = alloca ptr, align 8
  %3 = alloca ptr, align 8
  store ptr %0, ptr %2, align 8, !tbaa !44
  call void @llvm.lifetime.start.p0(i64 8, ptr %3) #6
  %4 = load ptr, ptr %2, align 8, !tbaa !44
  %5 = call ptr @MuxImageRelease(ptr noundef %4)
  store ptr %5, ptr %3, align 8, !tbaa !44
  %6 = load ptr, ptr %2, align 8, !tbaa !44
  call void @WebPSafeFree(ptr noundef %6)
  %7 = load ptr, ptr %3, align 8, !tbaa !44
  call void @llvm.lifetime.end.p0(i64 8, ptr %3) #6
  ret ptr %7
}

; Function Attrs: nounwind uwtable
define internal i32 @SearchImageToGetOrDelete(ptr noundef %0, i32 noundef %1, ptr noundef %2) #0 {
  %4 = alloca i32, align 4
  %5 = alloca ptr, align 8
  %6 = alloca i32, align 4
  %7 = alloca ptr, align 8
  %8 = alloca i32, align 4
  %9 = alloca i32, align 4
  %10 = alloca ptr, align 8
  store ptr %0, ptr %5, align 8, !tbaa !49
  store i32 %1, ptr %6, align 4, !tbaa !19
  store ptr %2, ptr %7, align 8, !tbaa !53
  call void @llvm.lifetime.start.p0(i64 4, ptr %8) #6
  store i32 0, ptr %8, align 4, !tbaa !19
  %11 = load ptr, ptr %5, align 8, !tbaa !49
  %12 = load ptr, ptr %7, align 8, !tbaa !53
  store ptr %11, ptr %12, align 8, !tbaa !49
  %13 = load i32, ptr %6, align 4, !tbaa !19
  %14 = icmp eq i32 %13, 0
  br i1 %14, label %15, label %23

15:                                               ; preds = %3
  %16 = load ptr, ptr %5, align 8, !tbaa !49
  %17 = load ptr, ptr %16, align 8, !tbaa !44
  %18 = call i32 @MuxImageCount(ptr noundef %17, i32 noundef 10)
  store i32 %18, ptr %6, align 4, !tbaa !19
  %19 = load i32, ptr %6, align 4, !tbaa !19
  %20 = icmp eq i32 %19, 0
  br i1 %20, label %21, label %22

21:                                               ; preds = %15
  store i32 0, ptr %4, align 4
  store i32 1, ptr %9, align 4
  br label %46

22:                                               ; preds = %15
  br label %23

23:                                               ; preds = %22, %3
  br label %24

24:                                               ; preds = %44, %23
  %25 = load ptr, ptr %5, align 8, !tbaa !49
  %26 = load ptr, ptr %25, align 8, !tbaa !44
  %27 = icmp ne ptr %26, null
  br i1 %27, label %28, label %45

28:                                               ; preds = %24
  call void @llvm.lifetime.start.p0(i64 8, ptr %10) #6
  %29 = load ptr, ptr %5, align 8, !tbaa !49
  %30 = load ptr, ptr %29, align 8, !tbaa !44
  store ptr %30, ptr %10, align 8, !tbaa !44
  %31 = load i32, ptr %8, align 4, !tbaa !19
  %32 = add i32 %31, 1
  store i32 %32, ptr %8, align 4, !tbaa !19
  %33 = load i32, ptr %8, align 4, !tbaa !19
  %34 = load i32, ptr %6, align 4, !tbaa !19
  %35 = icmp eq i32 %33, %34
  br i1 %35, label %36, label %37

36:                                               ; preds = %28
  store i32 1, ptr %4, align 4
  store i32 1, ptr %9, align 4
  br label %42

37:                                               ; preds = %28
  %38 = load ptr, ptr %10, align 8, !tbaa !44
  %39 = getelementptr inbounds nuw %struct.WebPMuxImage, ptr %38, i32 0, i32 8
  store ptr %39, ptr %5, align 8, !tbaa !49
  %40 = load ptr, ptr %5, align 8, !tbaa !49
  %41 = load ptr, ptr %7, align 8, !tbaa !53
  store ptr %40, ptr %41, align 8, !tbaa !49
  store i32 0, ptr %9, align 4
  br label %42

42:                                               ; preds = %37, %36
  call void @llvm.lifetime.end.p0(i64 8, ptr %10) #6
  %43 = load i32, ptr %9, align 4
  switch i32 %43, label %46 [
    i32 0, label %44
  ]

44:                                               ; preds = %42
  br label %24, !llvm.loop !55

45:                                               ; preds = %24
  store i32 0, ptr %4, align 4
  store i32 1, ptr %9, align 4
  br label %46

46:                                               ; preds = %45, %42, %21
  call void @llvm.lifetime.end.p0(i64 4, ptr %8) #6
  %47 = load i32, ptr %4, align 4
  ret i32 %47
}

; Function Attrs: nounwind uwtable
define hidden i32 @MuxImageDeleteNth(ptr noundef %0, i32 noundef %1) #0 {
  %3 = alloca i32, align 4
  %4 = alloca ptr, align 8
  %5 = alloca i32, align 4
  store ptr %0, ptr %4, align 8, !tbaa !49
  store i32 %1, ptr %5, align 4, !tbaa !19
  %6 = load ptr, ptr %4, align 8, !tbaa !49
  %7 = load i32, ptr %5, align 4, !tbaa !19
  %8 = call i32 @SearchImageToGetOrDelete(ptr noundef %6, i32 noundef %7, ptr noundef %4)
  %9 = icmp ne i32 %8, 0
  br i1 %9, label %11, label %10

10:                                               ; preds = %2
  store i32 0, ptr %3, align 4
  br label %16

11:                                               ; preds = %2
  %12 = load ptr, ptr %4, align 8, !tbaa !49
  %13 = load ptr, ptr %12, align 8, !tbaa !44
  %14 = call ptr @MuxImageDelete(ptr noundef %13)
  %15 = load ptr, ptr %4, align 8, !tbaa !49
  store ptr %14, ptr %15, align 8, !tbaa !44
  store i32 1, ptr %3, align 4
  br label %16

16:                                               ; preds = %11, %10
  %17 = load i32, ptr %3, align 4
  ret i32 %17
}