; Function Attrs: nounwind uwtable
define hidden range(i32 0, 2) i32 @MuxImageDeleteNth(ptr noundef captures(none) %0, i32 noundef %1) local_unnamed_addr #3 {
  %3 = icmp eq i32 %1, 0
  %.pre.i = load ptr, ptr %0, align 8, !tbaa !43
  br i1 %3, label %4, label %MuxImageCount.exit.i

4:                                                ; preds = %2
  %.not19.i.i = icmp eq ptr %.pre.i, null
  br i1 %.not19.i.i, label %SearchImageToGetOrDelete.exit.thread, label %.lr.ph24.i.i

.lr.ph24.i.i:                                     ; preds = %4, %.lr.ph24.i.i
  %.022.i.i = phi i32 [ %5, %.lr.ph24.i.i ], [ 0, %4 ]
  %.01220.i.i = phi ptr [ %7, %.lr.ph24.i.i ], [ %.pre.i, %4 ]
  %5 = add nuw nsw i32 %.022.i.i, 1
  %6 = getelementptr inbounds nuw i8, ptr %.01220.i.i, i64 48
  %7 = load ptr, ptr %6, align 8, !tbaa !39
  %.not.i.i = icmp eq ptr %7, null
  br i1 %.not.i.i, label %MuxImageCount.exit.i, label %.lr.ph24.i.i, !llvm.loop !42

MuxImageCount.exit.i:                             ; preds = %.lr.ph24.i.i, %2
  %.018.i = phi i32 [ %1, %2 ], [ %5, %.lr.ph24.i.i ]
  %.not25.i = icmp eq ptr %.pre.i, null
  br i1 %.not25.i, label %SearchImageToGetOrDelete.exit.thread, label %.lr.ph.i.preheader

.lr.ph.i.preheader:                               ; preds = %MuxImageCount.exit.i
  %.not22.i8 = icmp eq i32 %.018.i, 1
  br i1 %.not22.i8, label %SearchImageToGetOrDelete.exit, label %.lr.ph

.lr.ph.i:                                         ; preds = %.lr.ph
  %8 = add i32 %9, 1
  %.not22.i = icmp eq i32 %8, %.018.i
  br i1 %.not22.i, label %SearchImageToGetOrDelete.exit.loopexit, label %.lr.ph

.lr.ph:                                           ; preds = %.lr.ph.i.preheader, %.lr.ph.i
  %9 = phi i32 [ %8, %.lr.ph.i ], [ 1, %.lr.ph.i.preheader ]
  %10 = phi ptr [ %12, %.lr.ph.i ], [ %.pre.i, %.lr.ph.i.preheader ]
  %11 = getelementptr inbounds nuw i8, ptr %10, i64 48
  %12 = load ptr, ptr %11, align 8, !tbaa !43
  %.not.i = icmp eq ptr %12, null
  br i1 %.not.i, label %SearchImageToGetOrDelete.exit.thread, label %.lr.ph.i

SearchImageToGetOrDelete.exit.loopexit:           ; preds = %.lr.ph.i
  %13 = getelementptr inbounds nuw i8, ptr %10, i64 48
  br label %SearchImageToGetOrDelete.exit

SearchImageToGetOrDelete.exit:                    ; preds = %SearchImageToGetOrDelete.exit.loopexit, %.lr.ph.i.preheader
  %14 = phi ptr [ %.pre.i, %.lr.ph.i.preheader ], [ %12, %SearchImageToGetOrDelete.exit.loopexit ]
  %.03.lcssa = phi ptr [ %0, %.lr.ph.i.preheader ], [ %13, %SearchImageToGetOrDelete.exit.loopexit ]
  %15 = tail call ptr @MuxImageRelease(ptr noundef nonnull %14)
  tail call void @WebPSafeFree(ptr noundef nonnull %14) #13
  store ptr %15, ptr %.03.lcssa, align 8, !tbaa !43
  br label %SearchImageToGetOrDelete.exit.thread

SearchImageToGetOrDelete.exit.thread:             ; preds = %.lr.ph, %MuxImageCount.exit.i, %4, %SearchImageToGetOrDelete.exit
  %.0 = phi i32 [ 1, %SearchImageToGetOrDelete.exit ], [ 0, %4 ], [ 0, %MuxImageCount.exit.i ], [ 0, %.lr.ph ]
  ret i32 %.0
}